target datalayout = "e-m:e-p270:32:32-p271:32:32-p272:64:64-i64:64-i128:128-f80:128-n8:16:32:64-S128"
target triple = "x86_64-pc-linux-gnu"

%struct.ImRect = type { %struct.ImVec2, %struct.ImVec2 }
%struct.ImVec2 = type { float, float }
%struct.ImGuiTableColumn = type <{ i32, float, float, float, float, float, float, float, float, %struct.ImRect, i32, float, float, float, float, float, float, float, i16, i16, i16, i16, i16, i16, i16, i16, i16, i8, i8, i8, i8, i8, i8, i8, i8, i8, i8, i8, i8, i8, i8 }>

; Function Attrs: inlinehint mustprogress nounwind uwtable
define internal noundef zeroext i8 @_ZL32TableGetColumnAvailSortDirectionP16ImGuiTableColumni(ptr noundef %0, i32 noundef %1) #4 {
  %3 = alloca ptr, align 8
  %4 = alloca i32, align 4
  store ptr %0, ptr %3, align 8, !tbaa !259
  store i32 %1, ptr %4, align 4, !tbaa !4
  %5 = load ptr, ptr %3, align 8, !tbaa !259
  %6 = getelementptr inbounds nuw %struct.ImGuiTableColumn, ptr %5, i32 0, i32 39
  %7 = load i8, ptr %6, align 2, !tbaa !465
  %8 = zext i8 %7 to i32
  %9 = load i32, ptr %4, align 4, !tbaa !4
  %10 = shl i32 %9, 1
  %11 = ashr i32 %8, %10
  %12 = and i32 %11, 3
  %13 = trunc i32 %12 to i8
  ret i8 %13
}

; Function Attrs: mustprogress uwtable
define dso_local noundef zeroext i8 @_ZN5ImGui31TableGetColumnNextSortDirectionEP16ImGuiTableColumn(ptr noundef %0) #0 {
  %2 = alloca i8, align 1
  %3 = alloca ptr, align 8
  %4 = alloca i32, align 4
  %5 = alloca i32, align 4
  store ptr %0, ptr %3, align 8, !tbaa !259
  %6 = load ptr, ptr %3, align 8, !tbaa !259
  %7 = getelementptr inbounds nuw %struct.ImGuiTableColumn, ptr %6, i32 0, i32 23
  %8 = load i16, ptr %7, align 2, !tbaa !350
  %9 = sext i16 %8 to i32
  %10 = icmp eq i32 %9, -1
  br i1 %10, label %11, label %14

11:                                               ; preds = %1
  %12 = load ptr, ptr %3, align 8, !tbaa !259
  %13 = call noundef zeroext i8 @_ZL32TableGetColumnAvailSortDirectionP16ImGuiTableColumni(ptr noundef %12, i32 noundef 0)
  store i8 %13, ptr %2, align 1
  br label %49

14:                                               ; preds = %1
  call void @llvm.lifetime.start.p0(i64 4, ptr %4) #8
  store i32 0, ptr %4, align 4, !tbaa !4
  br label %15

15:                                               ; preds = %43, %14
  %16 = load i32, ptr %4, align 4, !tbaa !4
  %17 = icmp slt i32 %16, 3
  br i1 %17, label %19, label %18

18:                                               ; preds = %15
  store i32 2, ptr %5, align 4
  br label %46

19:                                               ; preds = %15
  %20 = load ptr, ptr %3, align 8, !tbaa !259
  %21 = getelementptr inbounds nuw %struct.ImGuiTableColumn, ptr %20, i32 0, i32 38
  %22 = load i8, ptr %21, align 1
  %23 = and i8 %22, 3
  %24 = zext i8 %23 to i32
  %25 = load ptr, ptr %3, align 8, !tbaa !259
  %26 = load i32, ptr %4, align 4, !tbaa !4
  %27 = call noundef zeroext i8 @_ZL32TableGetColumnAvailSortDirectionP16ImGuiTableColumni(ptr noundef %25, i32 noundef %26)
  %28 = zext i8 %27 to i32
  %29 = icmp eq i32 %24, %28
  br i1 %29, label %30, label %42

30:                                               ; preds = %19
  %31 = load ptr, ptr %3, align 8, !tbaa !259
  %32 = load i32, ptr %4, align 4, !tbaa !4
  %33 = add nsw i32 %32, 1
  %34 = load ptr, ptr %3, align 8, !tbaa !259
  %35 = getelementptr inbounds nuw %struct.ImGuiTableColumn, ptr %34, i32 0, i32 38
  %36 = load i8, ptr %35, align 1
  %37 = lshr i8 %36, 2
  %38 = and i8 %37, 3
  %39 = zext i8 %38 to i32
  %40 = srem i32 %33, %39
  %41 = call noundef zeroext i8 @_ZL32TableGetColumnAvailSortDirectionP16ImGuiTableColumni(ptr noundef %31, i32 noundef %40)
  store i8 %41, ptr %2, align 1
  store i32 1, ptr %5, align 4
  br label %46

42:                                               ; preds = %19
  br label %43

43:                                               ; preds = %42
  %44 = load i32, ptr %4, align 4, !tbaa !4
  %45 = add nsw i32 %44, 1
  store i32 %45, ptr %4, align 4, !tbaa !4
  br label %15, !llvm.loop !592

46:                                               ; preds = %30, %18
  call void @llvm.lifetime.end.p0(i64 4, ptr %4) #8
  %47 = load i32, ptr %5, align 4
  switch i32 %47, label %51 [
    i32 2, label %48
    i32 1, label %49
  ]

48:                                               ; preds = %46
  store i8 0, ptr %2, align 1
  br label %49

49:                                               ; preds = %48, %46, %11
  %50 = load i8, ptr %2, align 1
  ret i8 %50

51:                                               ; preds = %46
  unreachable
}