; Function Attrs: mustprogress nofree norecurse nosync nounwind willreturn memory(argmem: read) uwtable
define dso_local noundef zeroext range(i8 0, 4) i8 @_ZN5ImGui31TableGetColumnNextSortDirectionEP16ImGuiTableColumn(ptr noundef readonly captures(none) %0) local_unnamed_addr #11 {
  %2 = getelementptr inbounds nuw i8, ptr %0, i64 94
  %3 = load i16, ptr %2, align 2, !tbaa !338
  %4 = icmp eq i16 %3, -1
  br i1 %4, label %9, label %.preheader

.preheader:                                       ; preds = %1
  %5 = getelementptr inbounds nuw i8, ptr %0, i64 113
  %6 = load i8, ptr %5, align 1
  %7 = getelementptr i8, ptr %0, i64 114
  %.val13 = load i8, ptr %7, align 2, !tbaa !430
  %8 = zext i8 %.val13 to i32
  br label %12

9:                                                ; preds = %1
  %10 = getelementptr i8, ptr %0, i64 114
  %.val14 = load i8, ptr %10, align 2, !tbaa !430
  %11 = and i8 %.val14, 3
  br label %.loopexit

12:                                               ; preds = %.preheader, %27
  %.01116 = phi i32 [ 0, %.preheader ], [ %28, %27 ]
  %13 = shl nuw nsw i32 %.01116, 1
  %14 = lshr i32 %8, %13
  %15 = trunc nuw i32 %14 to i8
  %16 = xor i8 %6, %15
  %17 = and i8 %16, 3
  %18 = icmp eq i8 %17, 0
  br i1 %18, label %19, label %27

19:                                               ; preds = %12
  %20 = lshr i8 %6, 2
  %21 = and i8 %20, 3
  %22 = trunc nuw i32 %.01116 to i8
  %.lhs.trunc = add nuw nsw i8 %22, 1
  %23 = urem i8 %.lhs.trunc, %21
  %24 = shl nuw nsw i8 %23, 1
  %25 = lshr i8 %.val13, %24
  %26 = and i8 %25, 3
  br label %.loopexit

27:                                               ; preds = %12
  %28 = add nuw nsw i32 %.01116, 1
  %exitcond = icmp eq i32 %28, 3
  br i1 %exitcond, label %.loopexit, label %12, !llvm.loop !546

.loopexit:                                        ; preds = %27, %19, %9
  %.012 = phi i8 [ %11, %9 ], [ %26, %19 ], [ 0, %27 ]
  ret i8 %.012
}